target datalayout = "e-m:e-p270:32:32-p271:32:32-p272:64:64-i64:64-i128:128-f80:128-n8:16:32:64-S128"
target triple = "x86_64-pc-linux-gnu"

%"class.xgboost::Value" = type { ptr, %"class.xgboost::IntrusivePtrCell", i64 }
%"class.xgboost::IntrusivePtrCell" = type { %"struct.std::atomic" }
%"struct.std::atomic" = type { %"struct.std::__atomic_base" }
%"struct.std::__atomic_base" = type { i32 }
%"class.xgboost::JsonWriter" = type { ptr, ptr }
%"struct.std::_Vector_base.46" = type { %"struct.std::_Vector_base<char, std::allocator<char>>::_Vector_impl" }
%"struct.std::_Vector_base<char, std::allocator<char>>::_Vector_impl" = type { %"struct.std::_Vector_base<char, std::allocator<char>>::_Vector_impl_data" }
%"struct.std::_Vector_base<char, std::allocator<char>>::_Vector_impl_data" = type { ptr, ptr, ptr }
%"struct.std::array" = type { [16 x i8] }
%"struct.xgboost::to_chars_result" = type { ptr, i32 }
%"class.xgboost::JsonNumber" = type <{ %"class.xgboost::Value", float, [4 x i8] }>

; Function Attrs: mustprogress nounwind uwtable
define linkonce_odr noundef ptr @_ZNKSt6vectorIcSaIcEE11_M_data_ptrIcEEPT_S4_(ptr noundef nonnull align 8 dereferenceable(24) %0, ptr noundef %1) #5 comdat align 2 {
  %3 = alloca ptr, align 8
  %4 = alloca ptr, align 8
  store ptr %0, ptr %3, align 8, !tbaa !129
  store ptr %1, ptr %4, align 8, !tbaa !59
  %5 = load ptr, ptr %4, align 8, !tbaa !59
  ret ptr %5
}

; Function Attrs: mustprogress nounwind uwtable
define linkonce_odr noundef ptr @_ZNSt14__array_traitsIcLm16EE6_S_ptrERA16_Kc(ptr noundef nonnull align 1 dereferenceable(16) %0) #5 comdat align 2 {
  %2 = alloca ptr, align 8
  store ptr %0, ptr %2, align 8, !tbaa !59
  %3 = load ptr, ptr %2, align 8, !tbaa !59
  %4 = getelementptr inbounds [16 x i8], ptr %3, i64 0, i64 0
  ret ptr %4
}

; Function Attrs: mustprogress nounwind uwtable
define linkonce_odr noundef ptr @_ZNSt6vectorIcSaIcEE4dataEv(ptr noundef nonnull align 8 dereferenceable(24) %0) #5 comdat align 2 {
  %2 = alloca ptr, align 8
  store ptr %0, ptr %2, align 8, !tbaa !129
  %3 = load ptr, ptr %2, align 8
  %4 = getelementptr inbounds nuw %"struct.std::_Vector_base.46", ptr %3, i32 0, i32 0
  %5 = getelementptr inbounds nuw %"struct.std::_Vector_base<char, std::allocator<char>>::_Vector_impl_data", ptr %4, i32 0, i32 0
  %6 = load ptr, ptr %5, align 8, !tbaa !150
  %7 = call noundef ptr @_ZNKSt6vectorIcSaIcEE11_M_data_ptrIcEEPT_S4_(ptr noundef nonnull align 8 dereferenceable(24) %3, ptr noundef %6) #3
  ret ptr %7
}

; Function Attrs: mustprogress nounwind uwtable
define linkonce_odr noundef i64 @_ZNKSt6vectorIcSaIcEE4sizeEv(ptr noundef nonnull align 8 dereferenceable(24) %0) #5 comdat align 2 {
  %2 = alloca ptr, align 8
  store ptr %0, ptr %2, align 8, !tbaa !129
  %3 = load ptr, ptr %2, align 8
  %4 = getelementptr inbounds nuw %"struct.std::_Vector_base.46", ptr %3, i32 0, i32 0
  %5 = getelementptr inbounds nuw %"struct.std::_Vector_base<char, std::allocator<char>>::_Vector_impl_data", ptr %4, i32 0, i32 1
  %6 = load ptr, ptr %5, align 8, !tbaa !130
  %7 = getelementptr inbounds nuw %"struct.std::_Vector_base.46", ptr %3, i32 0, i32 0
  %8 = getelementptr inbounds nuw %"struct.std::_Vector_base<char, std::allocator<char>>::_Vector_impl_data", ptr %7, i32 0, i32 0
  %9 = load ptr, ptr %8, align 8, !tbaa !150
  %10 = ptrtoint ptr %6 to i64
  %11 = ptrtoint ptr %9 to i64
  %12 = sub i64 %10, %11
  ret i64 %12
}

; Function Attrs: inlinehint mustprogress uwtable
define linkonce_odr { ptr, i32 } @_ZN7xgboost8to_charsEPcS0_f(ptr noundef %0, ptr noundef %1, float noundef %2) #8 comdat {
  %4 = alloca %"struct.xgboost::to_chars_result", align 8
  %5 = alloca ptr, align 8
  %6 = alloca ptr, align 8
  %7 = alloca float, align 4
  %8 = alloca i32, align 4
  store ptr %0, ptr %5, align 8, !tbaa !59
  store ptr %1, ptr %6, align 8, !tbaa !59
  store float %2, ptr %7, align 4, !tbaa !30
  %9 = load ptr, ptr %6, align 8, !tbaa !59
  %10 = load ptr, ptr %5, align 8, !tbaa !59
  %11 = ptrtoint ptr %9 to i64
  %12 = ptrtoint ptr %10 to i64
  %13 = sub i64 %11, %12
  %14 = icmp uge i64 %13, 16
  %15 = xor i1 %14, true
  %16 = zext i1 %15 to i64
  %17 = call i64 @llvm.expect.i64(i64 %16, i64 0)
  %18 = icmp ne i64 %17, 0
  br i1 %18, label %19, label %23

19:                                               ; preds = %3
  %20 = getelementptr inbounds nuw %"struct.xgboost::to_chars_result", ptr %4, i32 0, i32 0
  %21 = load ptr, ptr %5, align 8, !tbaa !59
  store ptr %21, ptr %20, align 8, !tbaa !144
  %22 = getelementptr inbounds nuw %"struct.xgboost::to_chars_result", ptr %4, i32 0, i32 1
  store i32 75, ptr %22, align 8, !tbaa !147
  br label %46

23:                                               ; preds = %3
  call void @llvm.lifetime.start.p0(i64 4, ptr %8) #3
  %24 = load float, ptr %7, align 4, !tbaa !30
  %25 = load ptr, ptr %5, align 8, !tbaa !59
  %26 = call noundef i32 @_ZN7xgboost6detail16ToCharsFloatImplEfPc(float noundef %24, ptr noundef %25)
  store i32 %26, ptr %8, align 4, !tbaa !90
  %27 = load ptr, ptr %5, align 8, !tbaa !59
  %28 = load i32, ptr %8, align 4, !tbaa !90
  %29 = sext i32 %28 to i64
  %30 = getelementptr inbounds i8, ptr %27, i64 %29
  %31 = getelementptr inbounds nuw %"struct.xgboost::to_chars_result", ptr %4, i32 0, i32 0
  store ptr %30, ptr %31, align 8, !tbaa !144
  %32 = getelementptr inbounds nuw %"struct.xgboost::to_chars_result", ptr %4, i32 0, i32 0
  %33 = load ptr, ptr %32, align 8, !tbaa !144
  %34 = load ptr, ptr %6, align 8, !tbaa !59
  %35 = icmp ult ptr %33, %34
  %36 = zext i1 %35 to i64
  %37 = call i64 @llvm.expect.i64(i64 %36, i64 1)
  %38 = icmp ne i64 %37, 0
  br i1 %38, label %39, label %41

39:                                               ; preds = %23
  %40 = getelementptr inbounds nuw %"struct.xgboost::to_chars_result", ptr %4, i32 0, i32 1
  store i32 0, ptr %40, align 8, !tbaa !147
  br label %45

41:                                               ; preds = %23
  %42 = getelementptr inbounds nuw %"struct.xgboost::to_chars_result", ptr %4, i32 0, i32 1
  store i32 75, ptr %42, align 8, !tbaa !147
  %43 = load ptr, ptr %6, align 8, !tbaa !59
  %44 = getelementptr inbounds nuw %"struct.xgboost::to_chars_result", ptr %4, i32 0, i32 0
  store ptr %43, ptr %44, align 8, !tbaa !144
  br label %45

45:                                               ; preds = %41, %39
  call void @llvm.lifetime.end.p0(i64 4, ptr %8) #3
  br label %46

46:                                               ; preds = %45, %19
  %47 = load { ptr, i32 }, ptr %4, align 8
  ret { ptr, i32 } %47
}

; Function Attrs: mustprogress nounwind uwtable
define linkonce_odr noundef nonnull align 4 dereferenceable(4) ptr @_ZNKR7xgboost10JsonNumber9GetNumberEv(ptr noundef nonnull align 8 dereferenceable(28) %0) #5 comdat align 2 {
  %2 = alloca ptr, align 8
  store ptr %0, ptr %2, align 8, !tbaa !142
  %3 = load ptr, ptr %2, align 8
  %4 = getelementptr inbounds nuw %"class.xgboost::JsonNumber", ptr %3, i32 0, i32 1
  ret ptr %4
}

; Function Attrs: mustprogress nounwind willreturn memory(none) uwtable
define linkonce_odr noundef i64 @_ZNKSt5arrayIcLm16EE4sizeEv(ptr noundef nonnull align 1 dereferenceable(16) %0) #10 comdat align 2 {
  %2 = alloca ptr, align 8
  store ptr %0, ptr %2, align 8, !tbaa !148
  ret i64 16
}

; Function Attrs: mustprogress nounwind willreturn memory(none) uwtable
define linkonce_odr noundef ptr @_ZNSt5arrayIcLm16EE4dataEv(ptr noundef nonnull align 1 dereferenceable(16) %0) #10 comdat align 2 {
  %2 = alloca ptr, align 8
  store ptr %0, ptr %2, align 8, !tbaa !148
  %3 = load ptr, ptr %2, align 8
  %4 = getelementptr inbounds nuw %"struct.std::array", ptr %3, i32 0, i32 0
  %5 = call noundef ptr @_ZNSt14__array_traitsIcLm16EE6_S_ptrERA16_Kc(ptr noundef nonnull align 1 dereferenceable(16) %4) #3
  ret ptr %5
}

; Function Attrs: mustprogress uwtable
define void @_ZN7xgboost10JsonWriter5VisitEPKNS_10JsonNumberE(ptr noundef nonnull align 8 dereferenceable(16) %0, ptr noundef %1) unnamed_addr #4 align 2 {
  %3 = alloca ptr, align 8
  %4 = alloca ptr, align 8
  %5 = alloca %"struct.std::array", align 1
  %6 = alloca %"struct.xgboost::to_chars_result", align 8
  %7 = alloca ptr, align 8
  %8 = alloca i64, align 8
  store ptr %0, ptr %3, align 8, !tbaa !36
  store ptr %1, ptr %4, align 8, !tbaa !142
  %9 = load ptr, ptr %3, align 8
  call void @llvm.lifetime.start.p0(i64 16, ptr %5) #3
  call void @llvm.lifetime.start.p0(i64 16, ptr %6) #3
  %10 = call noundef ptr @_ZNSt5arrayIcLm16EE4dataEv(ptr noundef nonnull align 1 dereferenceable(16) %5) #26
  %11 = call noundef ptr @_ZNSt5arrayIcLm16EE4dataEv(ptr noundef nonnull align 1 dereferenceable(16) %5) #26
  %12 = call noundef i64 @_ZNKSt5arrayIcLm16EE4sizeEv(ptr noundef nonnull align 1 dereferenceable(16) %5) #26
  %13 = getelementptr inbounds nuw i8, ptr %11, i64 %12
  %14 = load ptr, ptr %4, align 8, !tbaa !142
  %15 = call noundef nonnull align 4 dereferenceable(4) ptr @_ZNKR7xgboost10JsonNumber9GetNumberEv(ptr noundef nonnull align 8 dereferenceable(28) %14)
  %16 = load float, ptr %15, align 4, !tbaa !30
  %17 = call { ptr, i32 } @_ZN7xgboost8to_charsEPcS0_f(ptr noundef %10, ptr noundef %13, float noundef %16)
  %18 = getelementptr inbounds nuw { ptr, i32 }, ptr %6, i32 0, i32 0
  %19 = extractvalue { ptr, i32 } %17, 0
  store ptr %19, ptr %18, align 8
  %20 = getelementptr inbounds nuw { ptr, i32 }, ptr %6, i32 0, i32 1
  %21 = extractvalue { ptr, i32 } %17, 1
  store i32 %21, ptr %20, align 8
  call void @llvm.lifetime.start.p0(i64 8, ptr %7) #3
  %22 = getelementptr inbounds nuw %"struct.xgboost::to_chars_result", ptr %6, i32 0, i32 0
  %23 = load ptr, ptr %22, align 8, !tbaa !144
  store ptr %23, ptr %7, align 8, !tbaa !59
  call void @llvm.lifetime.start.p0(i64 8, ptr %8) #3
  %24 = getelementptr inbounds nuw %"class.xgboost::JsonWriter", ptr %9, i32 0, i32 1
  %25 = load ptr, ptr %24, align 8, !tbaa !110
  %26 = call noundef i64 @_ZNKSt6vectorIcSaIcEE4sizeEv(ptr noundef nonnull align 8 dereferenceable(24) %25) #3
  store i64 %26, ptr %8, align 8, !tbaa !22
  %27 = getelementptr inbounds nuw %"class.xgboost::JsonWriter", ptr %9, i32 0, i32 1
  %28 = load ptr, ptr %27, align 8, !tbaa !110
  %29 = getelementptr inbounds nuw %"class.xgboost::JsonWriter", ptr %9, i32 0, i32 1
  %30 = load ptr, ptr %29, align 8, !tbaa !110
  %31 = call noundef i64 @_ZNKSt6vectorIcSaIcEE4sizeEv(ptr noundef nonnull align 8 dereferenceable(24) %30) #3
  %32 = load ptr, ptr %7, align 8, !tbaa !59
  %33 = getelementptr inbounds nuw i8, ptr %32, i64 %31
  %34 = call noundef ptr @_ZNSt5arrayIcLm16EE4dataEv(ptr noundef nonnull align 1 dereferenceable(16) %5) #26
  %35 = ptrtoint ptr %33 to i64
  %36 = ptrtoint ptr %34 to i64
  %37 = sub i64 %35, %36
  call void @_ZNSt6vectorIcSaIcEE6resizeEm(ptr noundef nonnull align 8 dereferenceable(24) %28, i64 noundef %37)
  %38 = getelementptr inbounds nuw %"class.xgboost::JsonWriter", ptr %9, i32 0, i32 1
  %39 = load ptr, ptr %38, align 8, !tbaa !110
  %40 = call noundef ptr @_ZNSt6vectorIcSaIcEE4dataEv(ptr noundef nonnull align 8 dereferenceable(24) %39) #3
  %41 = load i64, ptr %8, align 8, !tbaa !22
  %42 = getelementptr inbounds nuw i8, ptr %40, i64 %41
  %43 = call noundef ptr @_ZNSt5arrayIcLm16EE4dataEv(ptr noundef nonnull align 1 dereferenceable(16) %5) #26
  %44 = load ptr, ptr %7, align 8, !tbaa !59
  %45 = call noundef ptr @_ZNSt5arrayIcLm16EE4dataEv(ptr noundef nonnull align 1 dereferenceable(16) %5) #26
  %46 = ptrtoint ptr %44 to i64
  %47 = ptrtoint ptr %45 to i64
  %48 = sub i64 %46, %47
  call void @llvm.memcpy.p0.p0.i64(ptr align 1 %42, ptr align 1 %43, i64 %48, i1 false)
  call void @llvm.lifetime.end.p0(i64 8, ptr %8) #3
  call void @llvm.lifetime.end.p0(i64 8, ptr %7) #3
  call void @llvm.lifetime.end.p0(i64 16, ptr %6) #3
  call void @llvm.lifetime.end.p0(i64 16, ptr %5) #3
  ret void
}