; Function Attrs: mustprogress uwtable
define void @_ZN7xgboost10JsonWriter5VisitEPKNS_10JsonNumberE(ptr noundef nonnull readonly align 8 captures(none) dereferenceable(16) %0, ptr noundef readonly captures(none) %1) unnamed_addr #3 align 2 {
  %3 = alloca %"struct.std::array", align 1
  call void @llvm.lifetime.start.p0(i64 16, ptr nonnull %3) #18
  %4 = getelementptr inbounds nuw i8, ptr %3, i64 16
  %5 = getelementptr inbounds nuw i8, ptr %1, i64 24
  %6 = load float, ptr %5, align 4, !tbaa !21
  %7 = call noundef i32 @_ZN7xgboost6detail16ToCharsFloatImplEfPc(float noundef %6, ptr noundef nonnull %3)
  %8 = sext i32 %7 to i64
  %9 = getelementptr inbounds i8, ptr %3, i64 %8
  %10 = icmp ult ptr %9, %4
  %..i = select i1 %10, ptr %9, ptr %4, !prof !225
  %11 = getelementptr inbounds nuw i8, ptr %0, i64 8
  %12 = load ptr, ptr %11, align 8, !tbaa !176
  %13 = getelementptr inbounds nuw i8, ptr %12, i64 8
  %14 = load ptr, ptr %13, align 8, !tbaa !179
  %15 = load ptr, ptr %12, align 8, !tbaa !182
  %16 = ptrtoint ptr %14 to i64
  %17 = ptrtoint ptr %15 to i64
  %18 = sub i64 %16, %17
  %19 = getelementptr inbounds nuw i8, ptr %..i, i64 %18
  %20 = ptrtoint ptr %19 to i64
  %21 = ptrtoint ptr %3 to i64
  %22 = sub i64 %20, %21
  call void @_ZNSt6vectorIcSaIcEE6resizeEm(ptr noundef nonnull align 8 dereferenceable(24) %12, i64 noundef %22)
  %23 = load ptr, ptr %11, align 8, !tbaa !176
  %24 = load ptr, ptr %23, align 8, !tbaa !182
  %25 = getelementptr inbounds nuw i8, ptr %24, i64 %18
  %26 = ptrtoint ptr %..i to i64
  %27 = sub i64 %26, %21
  call void @llvm.memcpy.p0.p0.i64(ptr align 1 %25, ptr nonnull align 1 %3, i64 %27, i1 false)
  call void @llvm.lifetime.end.p0(i64 16, ptr nonnull %3) #18
  ret void
}